target datalayout = "e-m:e-p270:32:32-p271:32:32-p272:64:64-i64:64-i128:128-f80:128-n8:16:32:64-S128"
target triple = "x86_64-pc-linux-gnu"

%struct.Wln_Ntk_t_ = type { ptr, ptr, i32, %struct.Vec_Int_t_, %struct.Vec_Int_t_, %struct.Vec_Int_t_, %struct.Vec_Int_t_, ptr, %struct.Vec_Int_t_, ptr, %struct.Vec_Int_t_, %struct.Vec_Int_t_, ptr, %struct.Vec_Str_t_, i32, %struct.Vec_Int_t_, %struct.Vec_Int_t_, %struct.Vec_Int_t_, %struct.Vec_Int_t_, %struct.Vec_Int_t_, %struct.Vec_Int_t_, %struct.Vec_Int_t_, %struct.Vec_Int_t_, ptr, [99 x i32], [99 x i32] }
%struct.Vec_Str_t_ = type { i32, i32, ptr }
%struct.Vec_Int_t_ = type { i32, i32, ptr }

@.str = private unnamed_addr constant [38 x i8] c"Printing %d objects of network \22%s\22:\0A\00", align 1
@.str.1 = private unnamed_addr constant [2 x i8] c"\0A\00", align 1

; Function Attrs: inlinehint nounwind uwtable
define internal i32 @Vec_IntSize(ptr noundef %0) #4 {
  %2 = alloca ptr, align 8
  store ptr %0, ptr %2, align 8, !tbaa !26
  %3 = load ptr, ptr %2, align 8, !tbaa !26
  %4 = getelementptr inbounds nuw %struct.Vec_Int_t_, ptr %3, i32 0, i32 1
  %5 = load i32, ptr %4, align 4, !tbaa !34
  ret i32 %5
}

; Function Attrs: inlinehint nounwind uwtable
define internal i32 @Wln_NtkObjNum(ptr noundef %0) #4 {
  %2 = alloca ptr, align 8
  store ptr %0, ptr %2, align 8, !tbaa !10
  %3 = load ptr, ptr %2, align 8, !tbaa !10
  %4 = getelementptr inbounds nuw %struct.Wln_Ntk_t_, ptr %3, i32 0, i32 6
  %5 = call i32 @Vec_IntSize(ptr noundef %4)
  ret i32 %5
}

; Function Attrs: nounwind uwtable
define void @Wln_NtkPrint(ptr noundef %0) #0 {
  %2 = alloca ptr, align 8
  %3 = alloca i32, align 4
  store ptr %0, ptr %2, align 8, !tbaa !10
  call void @llvm.lifetime.start.p0(i64 4, ptr %3) #11
  %4 = load ptr, ptr %2, align 8, !tbaa !10
  %5 = call i32 @Wln_NtkObjNum(ptr noundef %4)
  %6 = load ptr, ptr %2, align 8, !tbaa !10
  %7 = getelementptr inbounds nuw %struct.Wln_Ntk_t_, ptr %6, i32 0, i32 0
  %8 = load ptr, ptr %7, align 8, !tbaa !12
  %9 = call i32 (ptr, ...) @printf(ptr noundef @.str, i32 noundef %5, ptr noundef %8)
  store i32 1, ptr %3, align 4, !tbaa !8
  br label %10

10:                                               ; preds = %18, %1
  %11 = load i32, ptr %3, align 4, !tbaa !8
  %12 = load ptr, ptr %2, align 8, !tbaa !10
  %13 = call i32 @Wln_NtkObjNum(ptr noundef %12)
  %14 = icmp slt i32 %11, %13
  br i1 %14, label %15, label %21

15:                                               ; preds = %10
  %16 = load ptr, ptr %2, align 8, !tbaa !10
  %17 = load i32, ptr %3, align 4, !tbaa !8
  call void @Wln_ObjPrint(ptr noundef %16, i32 noundef %17)
  br label %18

18:                                               ; preds = %15
  %19 = load i32, ptr %3, align 4, !tbaa !8
  %20 = add nsw i32 %19, 1
  store i32 %20, ptr %3, align 4, !tbaa !8
  br label %10, !llvm.loop !86

21:                                               ; preds = %10
  %22 = call i32 (ptr, ...) @printf(ptr noundef @.str.1)
  call void @llvm.lifetime.end.p0(i64 4, ptr %3) #11
  ret void
}