; Function Attrs: nounwind uwtable
define void @Wln_NtkPrint(ptr noundef %0) local_unnamed_addr #0 {
  %2 = getelementptr i8, ptr %0, i64 76
  %.val6 = load i32, ptr %2, align 4, !tbaa !21
  %3 = load ptr, ptr %0, align 8, !tbaa !3
  %4 = tail call i32 (ptr, ...) @printf(ptr noundef nonnull dereferenceable(1) @.str, i32 noundef %.val6, ptr noundef %3)
  %.val7 = load i32, ptr %2, align 4, !tbaa !21
  %5 = icmp sgt i32 %.val7, 1
  br i1 %5, label %.lr.ph, label %._crit_edge

.lr.ph:                                           ; preds = %1, %.lr.ph
  %.08 = phi i32 [ %6, %.lr.ph ], [ 1, %1 ]
  tail call void @Wln_ObjPrint(ptr noundef nonnull %0, i32 noundef %.08) #18
  %6 = add nuw nsw i32 %.08, 1
  %.val = load i32, ptr %2, align 4, !tbaa !21
  %7 = icmp slt i32 %6, %.val
  br i1 %7, label %.lr.ph, label %._crit_edge, !llvm.loop !79

._crit_edge:                                      ; preds = %.lr.ph, %1
  %putchar = tail call i32 @putchar(i32 10)
  ret void
}